; Function Attrs: mustprogress uwtable
define ptr @ucol_getRules_75(ptr noundef %coll, ptr nocapture noundef writeonly %length) local_unnamed_addr #0 {
entry:
  %0 = icmp ne ptr %coll, null
  tail call void @llvm.assume(i1 %0)
  %1 = tail call ptr @__dynamic_cast(ptr nonnull %coll, ptr nonnull @_ZTIN6icu_758CollatorE, ptr nonnull @_ZTIN6icu_7517RuleBasedCollatorE, i64 0) #10
  %cmp.not = icmp eq ptr %1, null
  br i1 %cmp.not, label %if.end, label %if.then

if.then:                                          ; preds = %entry
  %call2 = tail call noundef nonnull align 8 dereferenceable(64) ptr @_ZNK6icu_7517RuleBasedCollator8getRulesEv(ptr noundef nonnull align 8 dereferenceable(272) %1)
  %fUnion.i.i = getelementptr inbounds i8, ptr %call2, i64 8
  %2 = load i16, ptr %fUnion.i.i, align 8
  %cmp.i.i = icmp slt i16 %2, 0
  %3 = ashr i16 %2, 5
  %shr.i.i = sext i16 %3 to i32
  %fLength.i = getelementptr inbounds i8, ptr %call2, i64 12
  %4 = load i32, ptr %fLength.i, align 4
  %cond.i = select i1 %cmp.i.i, i32 %4, i32 %shr.i.i
  store i32 %cond.i, ptr %length, align 4
  %5 = load i16, ptr %fUnion.i.i, align 8
  %conv1.i = zext i16 %5 to i32
  %and.i = and i32 %conv1.i, 17
  %tobool.not.i = icmp eq i32 %and.i, 0
  br i1 %tobool.not.i, label %if.else.i, label %return

if.else.i:                                        ; preds = %if.then
  %and5.i = and i32 %conv1.i, 2
  %tobool6.not.i = icmp eq i32 %and5.i, 0
  br i1 %tobool6.not.i, label %if.else9.i, label %if.then7.i

if.then7.i:                                       ; preds = %if.else.i
  %fBuffer.i = getelementptr inbounds i8, ptr %call2, i64 10
  br label %return

if.else9.i:                                       ; preds = %if.else.i
  %fArray.i = getelementptr inbounds i8, ptr %call2, i64 24
  %6 = load ptr, ptr %fArray.i, align 8
  br label %return

if.end:                                           ; preds = %entry
  store i32 0, ptr %length, align 4
  br label %return

return:                                           ; preds = %if.else9.i, %if.then7.i, %if.then, %if.end
  %retval.0 = phi ptr [ @_ZZ16ucol_getRules_75E4_NUL, %if.end ], [ %fBuffer.i, %if.then7.i ], [ %6, %if.else9.i ], [ null, %if.then ]
  ret ptr %retval.0
}